target datalayout = "e-m:e-p270:32:32-p271:32:32-p272:64:64-i64:64-i128:128-f80:128-n8:16:32:64-S128"
target triple = "x86_64-pc-linux-gnu"

%struct.cip_connection_triad = type { i16, i16, i32 }
%struct.nstime_t = type { i64, i32 }
%struct._address = type { i32, i32, ptr, ptr }
%struct.cip_conn_info = type { %struct.cip_connection_triad, i8, i32, %struct.cip_safety_epath_info, i32, ptr, %struct.cip_simple_request_info, i32, i32, i32, %struct.cip_connID_info, %struct.cip_connID_info, i32, i8, i8 }
%struct.cip_safety_epath_info = type { i8, i32, i32, i32, i16, i16, i8, %struct.cip_connection_triad, float }
%struct.cip_simple_request_info = type { i32, i32, i32, i32, i32, i32, i32, i32, i8 }
%struct.cip_connID_info = type { i32, %struct._address, i16, i32, i32, i32, i32, i32, %struct.nstime_t }
%struct.cip_io_data_input = type { ptr, i32 }

@hf_cip_sequence_count = internal global i32 0, align 4
@hf_cip_io_data = internal global i32 0, align 4
@ett_cip_io_generic = internal global i32 0, align 4
@proto_cipio = internal global i32 0, align 4
@enip_OTrun_idle = internal global i8 1, align 1
@enip_TOrun_idle = internal global i8 0, align 1

; Function Attrs: null_pointer_is_valid sspstrong uwtable
define internal i32 @dissect_cip_io_generic(ptr noundef %0, ptr noundef %1, ptr noundef %2, ptr noundef %3) #0 {
  %5 = alloca ptr, align 8
  %6 = alloca ptr, align 8
  %7 = alloca ptr, align 8
  %8 = alloca ptr, align 8
  %9 = alloca ptr, align 8
  %10 = alloca i32, align 4
  %11 = alloca ptr, align 8
  %12 = alloca ptr, align 8
  store ptr %0, ptr %5, align 8
  store ptr %1, ptr %6, align 8
  store ptr %2, ptr %7, align 8
  store ptr %3, ptr %8, align 8
  call void @llvm.lifetime.start.p0(i64 8, ptr %9) #14
  %13 = load ptr, ptr %8, align 8
  store ptr %13, ptr %9, align 8
  call void @llvm.lifetime.start.p0(i64 4, ptr %10) #14
  store i32 0, ptr %10, align 4
  call void @llvm.lifetime.start.p0(i64 8, ptr %11) #14
  %14 = load ptr, ptr %7, align 8
  %15 = load i32, ptr @proto_cipio, align 4
  %16 = load ptr, ptr %5, align 8
  %17 = call ptr @proto_tree_add_item(ptr noundef %14, i32 noundef %15, ptr noundef %16, i32 noundef 0, i32 noundef -1, i32 noundef 0)
  store ptr %17, ptr %11, align 8
  call void @llvm.lifetime.start.p0(i64 8, ptr %12) #14
  %18 = load ptr, ptr %11, align 8
  %19 = load i32, ptr @ett_cip_io_generic, align 4
  %20 = call ptr @proto_item_add_subtree(ptr noundef %18, i32 noundef %19)
  store ptr %20, ptr %12, align 8
  %21 = load ptr, ptr %9, align 8
  %22 = icmp ne ptr %21, null
  br i1 %22, label %23, label %68

23:                                               ; preds = %4
  %24 = load ptr, ptr %9, align 8
  %25 = getelementptr inbounds nuw %struct.cip_io_data_input, ptr %24, i32 0, i32 0
  %26 = load ptr, ptr %25, align 8
  %27 = getelementptr inbounds nuw %struct.cip_conn_info, ptr %26, i32 0, i32 1
  %28 = load i8, ptr %27, align 8
  %29 = zext i8 %28 to i32
  %30 = and i32 %29, 15
  %31 = icmp eq i32 %30, 1
  br i1 %31, label %32, label %40

32:                                               ; preds = %23
  %33 = load ptr, ptr %12, align 8
  %34 = load i32, ptr @hf_cip_sequence_count, align 4
  %35 = load ptr, ptr %5, align 8
  %36 = load i32, ptr %10, align 4
  %37 = call ptr @proto_tree_add_item(ptr noundef %33, i32 noundef %34, ptr noundef %35, i32 noundef %36, i32 noundef 2, i32 noundef -2147483648)
  %38 = load i32, ptr %10, align 4
  %39 = add i32 %38, 2
  store i32 %39, ptr %10, align 4
  br label %40

40:                                               ; preds = %32, %23
  %41 = load ptr, ptr %5, align 8
  %42 = load i32, ptr %10, align 4
  %43 = call i32 @tvb_reported_length_remaining(ptr noundef %41, i32 noundef %42)
  %44 = icmp sge i32 %43, 4
  br i1 %44, label %45, label %67

45:                                               ; preds = %40
  %46 = load ptr, ptr %9, align 8
  %47 = getelementptr inbounds nuw %struct.cip_io_data_input, ptr %46, i32 0, i32 1
  %48 = load i32, ptr %47, align 8
  %49 = icmp eq i32 %48, 1
  br i1 %49, label %50, label %53

50:                                               ; preds = %45
  %51 = load i8, ptr @enip_OTrun_idle, align 1, !range !9, !noundef !10
  %52 = trunc i8 %51 to i1
  br i1 %52, label %61, label %53

53:                                               ; preds = %50, %45
  %54 = load ptr, ptr %9, align 8
  %55 = getelementptr inbounds nuw %struct.cip_io_data_input, ptr %54, i32 0, i32 1
  %56 = load i32, ptr %55, align 8
  %57 = icmp eq i32 %56, 2
  br i1 %57, label %58, label %67

58:                                               ; preds = %53
  %59 = load i8, ptr @enip_TOrun_idle, align 1, !range !9, !noundef !10
  %60 = trunc i8 %59 to i1
  br i1 %60, label %61, label %67

61:                                               ; preds = %58, %50
  %62 = load ptr, ptr %5, align 8
  %63 = load i32, ptr %10, align 4
  %64 = load ptr, ptr %12, align 8
  call void @dissect_cip_run_idle(ptr noundef %62, i32 noundef %63, ptr noundef %64)
  %65 = load i32, ptr %10, align 4
  %66 = add i32 %65, 4
  store i32 %66, ptr %10, align 4
  br label %67

67:                                               ; preds = %61, %58, %53, %40
  br label %68

68:                                               ; preds = %67, %4
  %69 = load ptr, ptr %12, align 8
  %70 = load i32, ptr @hf_cip_io_data, align 4
  %71 = load ptr, ptr %5, align 8
  %72 = load i32, ptr %10, align 4
  %73 = load ptr, ptr %5, align 8
  %74 = load i32, ptr %10, align 4
  %75 = call i32 @tvb_reported_length_remaining(ptr noundef %73, i32 noundef %74)
  %76 = call ptr @proto_tree_add_item(ptr noundef %69, i32 noundef %70, ptr noundef %71, i32 noundef %72, i32 noundef %75, i32 noundef 0)
  %77 = load ptr, ptr %5, align 8
  %78 = call i32 @tvb_captured_length(ptr noundef %77)
  call void @llvm.lifetime.end.p0(i64 8, ptr %12) #14
  call void @llvm.lifetime.end.p0(i64 8, ptr %11) #14
  call void @llvm.lifetime.end.p0(i64 4, ptr %10) #14
  call void @llvm.lifetime.end.p0(i64 8, ptr %9) #14
  ret i32 %78
}