; Function Attrs: null_pointer_is_valid sspstrong uwtable
define internal i32 @dissect_cip_io_generic(ptr noundef %0, ptr readnone captures(none) %1, ptr noundef %2, ptr noundef readonly captures(address_is_null) %3) #0 {
  %5 = load i32, ptr @proto_cipio, align 4
  %6 = tail call ptr @proto_tree_add_item(ptr noundef %2, i32 noundef %5, ptr noundef %0, i32 noundef 0, i32 noundef -1, i32 noundef 0)
  %7 = load i32, ptr @ett_cip_io_generic, align 4
  %8 = tail call ptr @proto_item_add_subtree(ptr noundef %6, i32 noundef %7)
  %.not = icmp eq ptr %3, null
  br i1 %.not, label %.thread, label %9

9:                                                ; preds = %4
  %10 = load ptr, ptr %3, align 8
  %11 = getelementptr inbounds nuw i8, ptr %10, i64 8
  %12 = load i8, ptr %11, align 8
  %13 = and i8 %12, 15
  %14 = icmp eq i8 %13, 1
  br i1 %14, label %15, label %18

15:                                               ; preds = %9
  %16 = load i32, ptr @hf_cip_sequence_count, align 4
  %17 = tail call ptr @proto_tree_add_item(ptr noundef %8, i32 noundef %16, ptr noundef %0, i32 noundef 0, i32 noundef 2, i32 noundef -2147483648)
  br label %18

18:                                               ; preds = %15, %9
  %.1 = phi i32 [ 2, %15 ], [ 0, %9 ]
  %19 = tail call i32 @tvb_reported_length_remaining(ptr noundef %0, i32 noundef %.1)
  %20 = icmp sgt i32 %19, 3
  br i1 %20, label %21, label %.thread

21:                                               ; preds = %18
  %22 = getelementptr inbounds nuw i8, ptr %3, i64 8
  %23 = load i32, ptr %22, align 8
  switch i32 %23, label %.thread [
    i32 1, label %24
    i32 2, label %27
  ]

24:                                               ; preds = %21
  %25 = load i8, ptr @enip_OTrun_idle, align 1, !range !17, !noundef !18
  %26 = trunc nuw i8 %25 to i1
  br i1 %26, label %30, label %.thread

27:                                               ; preds = %21
  %28 = load i8, ptr @enip_TOrun_idle, align 1, !range !17, !noundef !18
  %29 = trunc nuw i8 %28 to i1
  br i1 %29, label %30, label %.thread

30:                                               ; preds = %27, %24
  tail call void @dissect_cip_run_idle(ptr noundef %0, i32 noundef %.1, ptr noundef %8)
  %31 = or disjoint i32 %.1, 4
  br label %.thread

.thread:                                          ; preds = %21, %24, %18, %27, %30, %4
  %.0 = phi i32 [ %31, %30 ], [ %.1, %27 ], [ %.1, %18 ], [ 0, %4 ], [ %.1, %24 ], [ %.1, %21 ]
  %32 = load i32, ptr @hf_cip_io_data, align 4
  %33 = tail call i32 @tvb_reported_length_remaining(ptr noundef %0, i32 noundef %.0)
  %34 = tail call ptr @proto_tree_add_item(ptr noundef %8, i32 noundef %32, ptr noundef %0, i32 noundef %.0, i32 noundef %33, i32 noundef 0)
  %35 = tail call i32 @tvb_captured_length(ptr noundef %0)
  ret i32 %35
}